Certificate:
    Data:
        Version: 3 (0x2)
        Serial Number:
            36:d0:d6:9d:cf:38:19:3d:5c:b4:8b:f0:19:71:c6:89
    Signature Algorithm: ecdsa-with-SHA256
        Issuer: C=CN, ST=Chongqing, L=CQ, O=Domino Ltd., CN=Root CA
        Validity
            Not Before: Jul 13 02:36:29 2020 GMT
            Not After : Jul 11 02:36:29 2030 GMT
        Subject: C=CN, ST=Chongqing, L=CQ, O=Domino Ltd., CN=Root CA
        Subject Public Key Info:
            Public Key Algorithm: id-ecPublicKey
                Public-Key: (256 bit)
                pub: 
                    04:46:42:3e:f4:36:c7:06:ae:f3:11:6f:8c:d6:bc:
                    fe:39:f7:9d:e0:9c:91:55:64:e7:01:18:35:2e:65:
                    ff:7b:2f:58:bc:f4:03:d8:7b:c1:d6:0e:b2:1d:cd:
                    ea:59:0d:df:f7:9a:71:43:dc:ef:cd:9e:24:e4:48:
                    5d:c3:f4:21:34
                ASN1 OID: prime256v1
                NIST CURVE: P-256
        X509v3 extensions:
            X509v3 Key Usage: critical
                Certificate Sign
            X509v3 Extended Key Usage: 
                TLS Web Server Authentication
            X509v3 Basic Constraints: critical
                CA:TRUE
    Signature Algorithm: ecdsa-with-SHA256
         30:45:02:20:36:fe:8d:ff:25:fd:f7:54:e7:b9:bc:43:f2:4a:
         09:a1:c6:b7:37:42:a2:80:fd:87:94:3e:d3:d4:de:2c:0f:51:
         02:21:00:e5:84:b4:ba:9c:38:98:4a:c2:76:3d:1d:da:cd:76:
         b5:d1:b7:98:1a:93:49:d5:17:a7:f7:66:b3:f0:8d:94:58
-----BEGIN CERTIFICATE-----
MIIB4jCCAYigAwIBAgIQNtDWnc84GT1ctIvwGXHGiTAKBggqhkjOPQQDAjBWMQsw
CQYDVQQGEwJDTjESMBAGA1UECBMJQ2hvbmdxaW5nMQswCQYDVQQHEwJDUTEUMBIG
A1UEChMLRG9taW5vIEx0ZC4xEDAOBgNVBAMTB1Jvb3QgQ0EwHhcNMjAwNzEzMDIz
NjI5WhcNMzAwNzExMDIzNjI5WjBWMQswCQYDVQQGEwJDTjESMBAGA1UECBMJQ2hv
bmdxaW5nMQswCQYDVQQHEwJDUTEUMBIGA1UEChMLRG9taW5vIEx0ZC4xEDAOBgNV
BAMTB1Jvb3QgQ0EwWTATBgcqhkjOPQIBBggqhkjOPQMBBwNCAARGQj70NscGrvMR
b4zWvP45953gnJFVZOcBGDUuZf97L1i89APYe8HWDrIdzepZDd/3mnFD3O/NniTk
SF3D9CE0ozgwNjAOBgNVHQ8BAf8EBAMCAgQwEwYDVR0lBAwwCgYIKwYBBQUHAwEw
DwYDVR0TAQH/BAUwAwEB/zAKBggqhkjOPQQDAgNIADBFAiA2/o3/Jf33VOe5vEPy
Sgmhxrc3QqKA/YeUPtPU3iwPUQIhAOWEtLqcOJhKwnY9HdrNdrXRt5gak0nVF6f3
ZrPwjZRY
-----END CERTIFICATE-----
